; Function Attrs: nounwind uwtable
define dso_local void @addReplyStatusFormat(ptr noundef %0, ptr noundef %1, ...) local_unnamed_addr #0 {
  %3 = alloca [1 x %struct.__va_list_tag], align 16
  call void @llvm.lifetime.start.p0(i64 24, ptr nonnull %3) #26
  call void @llvm.va_start.p0(ptr nonnull %3)
  %4 = call ptr @sdsempty() #26
  %5 = call ptr @sdscatvprintf(ptr noundef %4, ptr noundef %1, ptr noundef nonnull %3) #26
  call void @llvm.va_end.p0(ptr nonnull %3)
  %6 = getelementptr inbounds i8, ptr %5, i64 -1
  %7 = load i8, ptr %6, align 1, !tbaa !12
  %8 = zext i8 %7 to i32
  %9 = and i32 %8, 7
  switch i32 %9, label %sdslen.exit [
    i32 0, label %10
    i32 1, label %13
    i32 2, label %17
    i32 3, label %21
    i32 4, label %25
  ]

10:                                               ; preds = %2
  %11 = lshr i32 %8, 3
  %12 = zext nneg i32 %11 to i64
  br label %sdslen.exit

13:                                               ; preds = %2
  %14 = getelementptr inbounds i8, ptr %5, i64 -3
  %15 = load i8, ptr %14, align 1, !tbaa !12
  %16 = zext i8 %15 to i64
  br label %sdslen.exit

17:                                               ; preds = %2
  %18 = getelementptr inbounds i8, ptr %5, i64 -5
  %19 = load i16, ptr %18, align 1, !tbaa !13
  %20 = zext i16 %19 to i64
  br label %sdslen.exit

21:                                               ; preds = %2
  %22 = getelementptr inbounds i8, ptr %5, i64 -9
  %23 = load i32, ptr %22, align 1, !tbaa !15
  %24 = zext i32 %23 to i64
  br label %sdslen.exit

25:                                               ; preds = %2
  %26 = getelementptr inbounds i8, ptr %5, i64 -17
  %27 = load i64, ptr %26, align 1, !tbaa !16
  br label %sdslen.exit

sdslen.exit:                                      ; preds = %2, %10, %13, %17, %21, %25
  %.0.i = phi i64 [ %27, %25 ], [ %24, %21 ], [ %20, %17 ], [ %16, %13 ], [ %12, %10 ], [ 0, %2 ]
  call void @addReplyProto(ptr noundef %0, ptr noundef nonnull @.str.18, i64 noundef 1)
  call void @addReplyProto(ptr noundef %0, ptr noundef nonnull readonly %5, i64 noundef %.0.i)
  call void @addReplyProto(ptr noundef %0, ptr noundef nonnull @.str.6, i64 noundef 2)
  call void @sdsfree(ptr noundef nonnull %5) #26
  call void @llvm.lifetime.end.p0(i64 24, ptr nonnull %3) #26
  ret void
}